target datalayout = "e-m:e-p270:32:32-p271:32:32-p272:64:64-i64:64-i128:128-f80:128-n8:16:32:64-S128"
target triple = "x86_64-unknown-linux-gnu"

%"class.polynomial::manager" = type { ptr }

; Function Attrs: mustprogress uwtable
define linkonce_odr hidden void @_ZN10polynomial7manager3imp27exact_pseudo_division_mod_dEPKNS_10polynomialES4_jRKNS_10var2degreeER7obj_refIS2_S0_ESA_(ptr noundef nonnull align 8 dereferenceable(824) %this, ptr noundef %p, ptr noundef %q, i32 noundef %x, ptr noundef nonnull align 8 dereferenceable(8) %x2d, ptr noundef nonnull align 8 dereferenceable(16) %Q, ptr noundef nonnull align 8 dereferenceable(16) %R) #5 comdat align 2 {
entry:
  %this.addr = alloca ptr, align 8
  %p.addr = alloca ptr, align 8
  %q.addr = alloca ptr, align 8
  %x.addr = alloca i32, align 4
  %x2d.addr = alloca ptr, align 8
  %Q.addr = alloca ptr, align 8
  %R.addr = alloca ptr, align 8
  %d = alloca i32, align 4
  store ptr %this, ptr %this.addr, align 8
  store ptr %p, ptr %p.addr, align 8
  store ptr %q, ptr %q.addr, align 8
  store i32 %x, ptr %x.addr, align 4
  store ptr %x2d, ptr %x2d.addr, align 8
  store ptr %Q, ptr %Q.addr, align 8
  store ptr %R, ptr %R.addr, align 8
  %this1 = load ptr, ptr %this.addr, align 8
  %0 = load ptr, ptr %p.addr, align 8
  %1 = load ptr, ptr %q.addr, align 8
  %2 = load i32, ptr %x.addr, align 4
  %3 = load ptr, ptr %Q.addr, align 8
  %4 = load ptr, ptr %R.addr, align 8
  %5 = load ptr, ptr %x2d.addr, align 8
  call void @_ZN10polynomial7manager3imp20pseudo_division_coreILb1ELb1ELb1EEEvPKNS_10polynomialES5_jRjR7obj_refIS3_S0_ES9_PKNS_10var2degreeE(ptr noundef nonnull align 8 dereferenceable(824) %this1, ptr noundef %0, ptr noundef %1, i32 noundef %2, ptr noundef nonnull align 4 dereferenceable(4) %d, ptr noundef nonnull align 8 dereferenceable(16) %3, ptr noundef nonnull align 8 dereferenceable(16) %4, ptr noundef %5)
  ret void
}

; Function Attrs: mustprogress uwtable
define hidden void @_ZN10polynomial7manager27exact_pseudo_division_mod_dEPKNS_10polynomialES3_jRKNS_10var2degreeER7obj_refIS1_S0_ES9_(ptr noundef nonnull align 8 dereferenceable(8) %this, ptr noundef %p, ptr noundef %q, i32 noundef %x, ptr noundef nonnull align 8 dereferenceable(8) %x2d, ptr noundef nonnull align 8 dereferenceable(16) %Q, ptr noundef nonnull align 8 dereferenceable(16) %R) #5 align 2 {
entry:
  %this.addr = alloca ptr, align 8
  %p.addr = alloca ptr, align 8
  %q.addr = alloca ptr, align 8
  %x.addr = alloca i32, align 4
  %x2d.addr = alloca ptr, align 8
  %Q.addr = alloca ptr, align 8
  %R.addr = alloca ptr, align 8
  store ptr %this, ptr %this.addr, align 8
  store ptr %p, ptr %p.addr, align 8
  store ptr %q, ptr %q.addr, align 8
  store i32 %x, ptr %x.addr, align 4
  store ptr %x2d, ptr %x2d.addr, align 8
  store ptr %Q, ptr %Q.addr, align 8
  store ptr %R, ptr %R.addr, align 8
  %this1 = load ptr, ptr %this.addr, align 8
  %m_imp = getelementptr inbounds %"class.polynomial::manager", ptr %this1, i32 0, i32 0
  %0 = load ptr, ptr %m_imp, align 8
  %1 = load ptr, ptr %p.addr, align 8
  %2 = load ptr, ptr %q.addr, align 8
  %3 = load i32, ptr %x.addr, align 4
  %4 = load ptr, ptr %x2d.addr, align 8
  %5 = load ptr, ptr %Q.addr, align 8
  %6 = load ptr, ptr %R.addr, align 8
  call void @_ZN10polynomial7manager3imp27exact_pseudo_division_mod_dEPKNS_10polynomialES4_jRKNS_10var2degreeER7obj_refIS2_S0_ESA_(ptr noundef nonnull align 8 dereferenceable(824) %0, ptr noundef %1, ptr noundef %2, i32 noundef %3, ptr noundef nonnull align 8 dereferenceable(8) %4, ptr noundef nonnull align 8 dereferenceable(16) %5, ptr noundef nonnull align 8 dereferenceable(16) %6)
  ret void
}