; Function Attrs: mustprogress uwtable
define hidden void @_ZN10polynomial7manager27exact_pseudo_division_mod_dEPKNS_10polynomialES3_jRKNS_10var2degreeER7obj_refIS1_S0_ES9_(ptr nocapture noundef nonnull readonly align 8 dereferenceable(8) %this, ptr noundef %p, ptr noundef %q, i32 noundef %x, ptr noundef nonnull align 8 dereferenceable(8) %x2d, ptr noundef nonnull align 8 dereferenceable(16) %Q, ptr noundef nonnull align 8 dereferenceable(16) %R) local_unnamed_addr #4 align 2 {
entry:
  %d.i = alloca i32, align 4
  %0 = load ptr, ptr %this, align 8
  call void @llvm.lifetime.start.p0(i64 4, ptr nonnull %d.i)
  call void @_ZN10polynomial7manager3imp20pseudo_division_coreILb1ELb1ELb1EEEvPKNS_10polynomialES5_jRjR7obj_refIS3_S0_ES9_PKNS_10var2degreeE(ptr noundef nonnull align 8 dereferenceable(824) %0, ptr noundef %p, ptr noundef %q, i32 noundef %x, ptr noundef nonnull align 4 dereferenceable(4) %d.i, ptr noundef nonnull align 8 dereferenceable(16) %Q, ptr noundef nonnull align 8 dereferenceable(16) %R, ptr noundef nonnull %x2d)
  call void @llvm.lifetime.end.p0(i64 4, ptr nonnull %d.i)
  ret void
}